; Function Attrs: nounwind uwtable
define internal void @_StartData(ptr noundef %0, ptr noundef readonly captures(none) %1) #0 {
  %3 = getelementptr inbounds nuw i8, ptr %1, i64 152
  %4 = load ptr, ptr %3, align 8
  %5 = getelementptr inbounds nuw i8, ptr %4, i64 8
  %6 = load ptr, ptr %5, align 8
  %7 = tail call fastcc ptr @tarOpen(ptr noundef %0, ptr noundef %6, i8 noundef signext 119)
  store ptr %7, ptr %4, align 8
  ret void
}